#include <math.h>
#include <stdio.h>
#include <stdlib.h>
#include <string.h>

int main(){
	int row,col,a[101][101],i,j,k;
	scanf("%d%d",&row,&col);
	for(i=1;i<=row;i++){
		for(j=1;j<=col;j++){
		scanf("%d",&a[i][j]);
	    }
	}
	for(k=2;k<=row+col;k++){
		if(k<=col+1){
			for(j=k-1;j>=1&&k-j<=row;j--){
				printf("%d\n",a[k-j][j]);                       
	    	}
		}
		if(k>col+1){
			for(j=col;j>=1&&k-j<=row;j--){
				printf("%d\n",a[k-j][j]);
	    	}
		}
	}
	scanf("%d",&row);
	return 0;
}